target datalayout = "e-m:e-p270:32:32-p271:32:32-p272:64:64-i64:64-i128:128-f80:128-n8:16:32:64-S128"
target triple = "x86_64-pc-linux-gnu"

@.str.20 = private unnamed_addr constant [18 x i8] c"/proc/self/cgroup\00", align 1

; Function Attrs: nounwind uwtable
define dso_local i64 @uv_get_constrained_memory() #0 {
  %1 = alloca i64, align 8
  %2 = alloca [1024 x i8], align 16
  %3 = alloca i32, align 4
  call void @llvm.lifetime.start.p0(i64 1024, ptr %2) #12
  %4 = getelementptr inbounds [1024 x i8], ptr %2, i64 0, i64 0
  %5 = call i32 @uv__slurp(ptr noundef @.str.20, ptr noundef %4, i64 noundef 1024)
  %6 = icmp ne i32 %5, 0
  br i1 %6, label %7, label %8

7:                                                ; preds = %0
  store i64 0, ptr %1, align 8
  store i32 1, ptr %3, align 4
  br label %11

8:                                                ; preds = %0
  %9 = getelementptr inbounds [1024 x i8], ptr %2, i64 0, i64 0
  %10 = call i64 @uv__get_cgroup_constrained_memory(ptr noundef %9)
  store i64 %10, ptr %1, align 8
  store i32 1, ptr %3, align 4
  br label %11

11:                                               ; preds = %8, %7
  call void @llvm.lifetime.end.p0(i64 1024, ptr %2) #12
  %12 = load i64, ptr %1, align 8
  ret i64 %12
}