; Function Attrs: nounwind uwtable
define dso_local i64 @uv_get_constrained_memory() local_unnamed_addr #0 {
  %1 = alloca [1024 x i8], align 16
  call void @llvm.lifetime.start.p0(i64 1024, ptr nonnull %1) #17
  %2 = call i32 @uv__slurp(ptr noundef nonnull @.str.20, ptr noundef nonnull %1, i64 noundef 1024) #17
  %.not = icmp eq i32 %2, 0
  br i1 %.not, label %3, label %5

3:                                                ; preds = %0
  %4 = call fastcc i64 @uv__get_cgroup_constrained_memory(ptr noundef %1)
  br label %5

5:                                                ; preds = %0, %3
  %.0 = phi i64 [ %4, %3 ], [ 0, %0 ]
  call void @llvm.lifetime.end.p0(i64 1024, ptr nonnull %1) #17
  ret i64 %.0
}